BL51 BANKED LINKER/LOCATER V6.05                                                        05/31/2017  11:32:38  PAGE 1


BL51 BANKED LINKER/LOCATER V6.05, INVOKED BY:
C:\KEIL\C51\BIN\BL51.EXE ..\output\LCD12864.obj, ..\output\main.obj TO ..\output\LCD12864Test PRINT (.\LCD12864Test.m51)
>>  RAMSIZE (256)


MEMORY MODEL: SMALL


INPUT MODULES INCLUDED:
  ..\output\LCD12864.obj (LCD12864)
  ..\output\main.obj (MAIN)
  C:\KEIL\C51\LIB\C51S.LIB (?C_STARTUP)
  C:\KEIL\C51\LIB\C51S.LIB (?C?CLDPTR)
  C:\KEIL\C51\LIB\C51S.LIB (?C?ILDPTR)


LINK MAP OF MODULE:  ..\output\LCD12864Test (LCD12864)


            TYPE    BASE      LENGTH    RELOCATION   SEGMENT NAME
            -----------------------------------------------------

            * * * * * * *   D A T A   M E M O R Y   * * * * * * *
            REG     0000H     0008H     ABSOLUTE     "REG BANK 0"
            DATA    0008H     0008H     UNIT         _DATA_GROUP_
            DATA    0010H     0003H     UNIT         ?DT?_LCDSHOWIMAGE?LCD12864
            IDATA   0013H     0001H     UNIT         ?STACK

            * * * * * * *   C O D E   M E M O R Y   * * * * * * *
            CODE    0000H     0003H     ABSOLUTE     
            CODE    0003H     0496H     UNIT         ?CO?MAIN
            CODE    0499H     0092H     UNIT         ?PR?_LCDDRAWAREA?LCD12864
            CODE    052BH     008DH     UNIT         ?PR?MAIN?MAIN
            CODE    05B8H     0086H     UNIT         ?PR?_LCDSHOWIMAGE?LCD12864
            CODE    063EH     0073H     UNIT         ?PR?_LCDCLEARIMAGE?LCD12864
            CODE    06B1H     0058H     UNIT         ?PR?LCDINITIMAGE?LCD12864
            CODE    0709H     004DH     UNIT         ?PR?_LCDSHOWCN?LCD12864
            CODE    0756H     0044H     UNIT         ?C?LIB_CODE
            CODE    079AH     002BH     UNIT         ?PR?_LCDSETCURSOR?LCD12864
            CODE    07C5H     0022H     UNIT         ?PR?_LCDSHOWSTR?LCD12864
            CODE    07E7H     001EH     UNIT         ?PR?INITLCD12864?LCD12864
            CODE    0805H     0019H     UNIT         ?PR?_LCDWRITECMD?LCD12864
            CODE    081EH     0019H     UNIT         ?PR?LCDCLEARALL?LCD12864
            CODE    0837H     0016H     UNIT         ?PR?_LCDWRITEDATA?LCD12864
            CODE    084DH     0012H     UNIT         ?PR?LCDWAITREADY?LCD12864
            CODE    085FH     0012H     UNIT         ?CO?LCD12864
            CODE    0871H     000FH     UNIT         ?PR?_LCDCLEARAREA?LCD12864
            CODE    0880H     000CH     UNIT         ?C_C51STARTUP
            CODE    088CH     0005H     UNIT         ?PR?LCDSHOWCURSOR?LCD12864
            CODE    0891H     0005H     UNIT         ?PR?LCDCANCELCURSOR?LCD12864



OVERLAY MAP OF MODULE:   ..\output\LCD12864Test (LCD12864)


SEGMENT                                DATA_GROUP 
  +--> CALLED SEGMENT                START    LENGTH
BL51 BANKED LINKER/LOCATER V6.05                                                      05/31/2017  11:32:38  PAGE 2


----------------------------------------------------
?C_C51STARTUP                        -----    -----
  +--> ?PR?MAIN?MAIN

?PR?MAIN?MAIN                        0008H    0002H
  +--> ?PR?INITLCD12864?LCD12864
  +--> ?PR?LCDINITIMAGE?LCD12864
  +--> ?CO?MAIN
  +--> ?PR?_LCDDRAWAREA?LCD12864
  +--> ?PR?_LCDSHOWSTR?LCD12864
  +--> ?PR?_LCDSHOWCN?LCD12864
  +--> ?PR?_LCDCLEARIMAGE?LCD12864

?PR?INITLCD12864?LCD12864            -----    -----
  +--> ?PR?_LCDWRITECMD?LCD12864
  +--> ?CO?LCD12864
  +--> ?PR?_LCDSHOWSTR?LCD12864

?PR?_LCDWRITECMD?LCD12864            -----    -----
  +--> ?PR?LCDWAITREADY?LCD12864

?PR?_LCDSHOWSTR?LCD12864             000AH    0006H
  +--> ?PR?_LCDSETCURSOR?LCD12864
  +--> ?PR?_LCDWRITEDATA?LCD12864

?PR?_LCDSETCURSOR?LCD12864           -----    -----
  +--> ?PR?_LCDWRITECMD?LCD12864

?PR?_LCDWRITEDATA?LCD12864           -----    -----
  +--> ?PR?LCDWAITREADY?LCD12864

?PR?LCDINITIMAGE?LCD12864            -----    -----
  +--> ?PR?_LCDWRITECMD?LCD12864
  +--> ?PR?_LCDWRITEDATA?LCD12864

?PR?_LCDDRAWAREA?LCD12864            000AH    0004H
  +--> ?PR?_LCDWRITECMD?LCD12864
  +--> ?PR?_LCDWRITEDATA?LCD12864

?PR?_LCDSHOWCN?LCD12864              000AH    0006H
  +--> ?PR?_LCDSETCURSOR?LCD12864
  +--> ?PR?_LCDWRITEDATA?LCD12864

?PR?_LCDCLEARIMAGE?LCD12864          -----    -----
  +--> ?PR?_LCDWRITECMD?LCD12864
  +--> ?PR?_LCDWRITEDATA?LCD12864



SYMBOL TABLE OF MODULE:  ..\output\LCD12864Test (LCD12864)

  VALUE           TYPE          NAME
  ----------------------------------

  -------         MODULE        LCD12864
  C:0000H         SYMBOL        _ICE_DUMMY_
  D:0080H         PUBLIC        P0
BL51 BANKED LINKER/LOCATER V6.05                                                      05/31/2017  11:32:38  PAGE 3


  D:0090H         PUBLIC        P1
  D:00A0H         PUBLIC        P2
  D:00B0H         PUBLIC        P3
  C:079AH         PUBLIC        _LCDSetCursor
  C:0709H         PUBLIC        _LCDShowCN
  D:00A8H         PUBLIC        IE
  D:00B8H         PUBLIC        IP
  C:0891H         PUBLIC        LCDCancelCursor
  C:063EH         PUBLIC        _LCDClearImage
  C:07C5H         PUBLIC        _LCDShowStr
  D:0098H         PUBLIC        SCON
  D:0088H         PUBLIC        TCON
  C:0871H         PUBLIC        _LCDClearArea
  B:0090H.5       PUBLIC        LCD12864_EN
  C:06B1H         PUBLIC        LCDInitImage
  C:081EH         PUBLIC        LCDClearAll
  C:05B8H         PUBLIC        _LCDShowImage
  C:083DH         PUBLIC        _LCDWriteData
  C:0499H         PUBLIC        _LCDDrawArea
  B:0090H.0       PUBLIC        LCD12864_RS
  C:084DH         PUBLIC        LCDWaitReady
  B:0090H.1       PUBLIC        LCD12864_RW
  D:00C8H         PUBLIC        T2CON
  C:07E7H         PUBLIC        InitLCD12864
  C:080EH         PUBLIC        _LCDWriteCmd
  C:088CH         PUBLIC        LCDShowCursor
  D:00D0H         PUBLIC        PSW
  -------         PROC          LCDWAITREADY
  -------         DO            
  D:0007H         SYMBOL        tmp
  -------         ENDDO         
  C:084DH         LINE#         6
  C:084DH         LINE#         7
  C:084DH         LINE#         8
  C:084DH         LINE#         10
  C:084FH         LINE#         11
  C:0851H         LINE#         12
  C:0851H         LINE#         13
  C:0853H         LINE#         14
  C:0858H         LINE#         15
  C:085AH         LINE#         16
  C:085CH         LINE#         17
  C:085EH         LINE#         18
  -------         ENDPROC       LCDWAITREADY
  -------         PROC          L?0082
  -------         ENDPROC       L?0082
  -------         PROC          _LCDWRITECMD
  D:0006H         SYMBOL        cmd
  C:080EH         LINE#         20
  C:0810H         LINE#         21
  C:0810H         LINE#         22
  C:0813H         LINE#         23
  C:0815H         LINE#         24
  C:0817H         LINE#         25
  C:0819H         LINE#         26
  C:081BH         LINE#         27
  C:081DH         LINE#         28
BL51 BANKED LINKER/LOCATER V6.05                                                      05/31/2017  11:32:38  PAGE 4


  -------         ENDPROC       _LCDWRITECMD
  C:0837H         SYMBOL        L?0081
  -------         PROC          L?0080
  -------         ENDPROC       L?0080
  C:0837H         SYMBOL        L?0081
  -------         PROC          _LCDWRITEDATA
  D:0006H         SYMBOL        dat
  C:083DH         LINE#         30
  C:083FH         LINE#         31
  C:083FH         LINE#         32
  C:0842H         LINE#         33
  C:0844H         LINE#         34
  C:0846H         LINE#         35
  C:0848H         LINE#         36
  C:084AH         LINE#         37
  C:084CH         LINE#         38
  -------         ENDPROC       _LCDWRITEDATA
  -------         PROC          INITLCD12864
  C:07E7H         LINE#         40
  C:07E7H         LINE#         41
  C:07E7H         LINE#         42
  C:07ECH         LINE#         43
  C:07F1H         LINE#         44
  C:07F6H         LINE#         45
  -------         ENDPROC       INITLCD12864
  -------         PROC          _LCDSHOWSTR
  D:0007H         SYMBOL        x
  D:0005H         SYMBOL        y
  D:000CH         SYMBOL        str
  D:000FH         SYMBOL        strlen
  C:07C5H         LINE#         48
  C:07CBH         LINE#         49
  C:07CBH         LINE#         50
  C:07CEH         LINE#         51
  C:07CEH         LINE#         52
  C:07DDH         LINE#         53
  C:07DFH         LINE#         54
  C:07E6H         LINE#         55
  -------         ENDPROC       _LCDSHOWSTR
  -------         PROC          _LCDSHOWCN
  D:000AH         SYMBOL        x
  D:000BH         SYMBOL        y
  D:000CH         SYMBOL        str
  D:000FH         SYMBOL        strlen
  -------         DO            
  D:0003H         SYMBOL        msb
  D:0005H         SYMBOL        lsb
  -------         ENDDO         
  C:0709H         LINE#         57
  C:0713H         LINE#         58
  C:0713H         LINE#         61
  C:071DH         LINE#         62
  C:0724H         LINE#         63
  C:0726H         LINE#         64
  C:072DH         LINE#         65
  C:0730H         LINE#         66
  C:0732H         LINE#         67
BL51 BANKED LINKER/LOCATER V6.05                                                      05/31/2017  11:32:38  PAGE 5


  C:0732H         LINE#         68
  C:073FH         LINE#         69
  C:073FH         LINE#         70
  C:0743H         LINE#         71
  C:0748H         LINE#         72
  C:0753H         LINE#         73
  C:0755H         LINE#         74
  -------         ENDPROC       _LCDSHOWCN
  -------         PROC          _LCDSETCURSOR
  D:0006H         SYMBOL        x
  D:0005H         SYMBOL        y
  -------         DO            
  D:0007H         SYMBOL        pos
  -------         ENDDO         
  C:079AH         LINE#         76
  C:079CH         LINE#         77
  C:079CH         LINE#         78
  C:079EH         LINE#         80
  C:07ACH         LINE#         81
  C:07ACH         LINE#         82
  C:07ACH         LINE#         83
  C:07B0H         LINE#         84
  C:07B2H         LINE#         85
  C:07B2H         LINE#         86
  C:07B6H         LINE#         87
  C:07B8H         LINE#         88
  C:07B8H         LINE#         89
  C:07BCH         LINE#         90
  C:07BEH         LINE#         91
  C:07BEH         LINE#         92
  C:07C2H         LINE#         93
  C:07C2H         LINE#         94
  C:07C2H         LINE#         95
  C:07C2H         LINE#         96
  C:07C2H         LINE#         97
  -------         ENDPROC       _LCDSETCURSOR
  -------         PROC          LCDSHOWCURSOR
  C:088CH         LINE#         100
  C:088CH         LINE#         101
  C:088CH         LINE#         102
  -------         ENDPROC       LCDSHOWCURSOR
  -------         PROC          LCDCANCELCURSOR
  C:0891H         LINE#         105
  C:0891H         LINE#         106
  C:0891H         LINE#         107
  -------         ENDPROC       LCDCANCELCURSOR
  -------         PROC          LCDCLEARALL
  C:081EH         LINE#         110
  C:081EH         LINE#         111
  C:081EH         LINE#         112
  C:0823H         LINE#         113
  C:0828H         LINE#         114
  -------         ENDPROC       LCDCLEARALL
  -------         PROC          _LCDSHOWIMAGE
  D:0010H         SYMBOL        image
  -------         DO            
  D:0004H         SYMBOL        i
BL51 BANKED LINKER/LOCATER V6.05                                                      05/31/2017  11:32:38  PAGE 6


  D:0005H         SYMBOL        j
  -------         ENDDO         
  C:05B8H         LINE#         117
  C:05BEH         LINE#         118
  C:05BEH         LINE#         121
  C:05C3H         LINE#         122
  C:05C8H         LINE#         123
  C:05CAH         LINE#         124
  C:05D1H         LINE#         125
  C:05D6H         LINE#         126
  C:05D8H         LINE#         127
  C:05D8H         LINE#         128
  C:05E7H         LINE#         129
  C:05F6H         LINE#         130
  C:05FAH         LINE#         131
  C:05FEH         LINE#         133
  C:0600H         LINE#         134
  C:0607H         LINE#         135
  C:060CH         LINE#         136
  C:060EH         LINE#         137
  C:060EH         LINE#         138
  C:061DH         LINE#         139
  C:062CH         LINE#         140
  C:0630H         LINE#         141
  C:0634H         LINE#         142
  C:0639H         LINE#         143
  -------         ENDPROC       _LCDSHOWIMAGE
  -------         PROC          _LCDDRAWAREA
  D:000AH         SYMBOL        x
  D:0005H         SYMBOL        y
  D:000BH         SYMBOL        image
  -------         DO            
  D:0004H         SYMBOL        i
  -------         ENDDO         
  C:0499H         LINE#         146
  C:04A1H         LINE#         147
  C:04A1H         LINE#         150
  C:04A6H         LINE#         151
  C:04ABH         LINE#         153
  C:04B1H         LINE#         154
  C:04B3H         LINE#         155
  C:04BAH         LINE#         156
  C:04BDH         LINE#         158
  C:04CCH         LINE#         159
  C:04DBH         LINE#         160
  C:04E1H         LINE#         161
  C:04E1H         LINE#         162
  C:04E3H         LINE#         163
  C:04EEH         LINE#         164
  C:04F6H         LINE#         166
  C:0505H         LINE#         167
  C:0514H         LINE#         168
  C:0518H         LINE#         169
  C:0518H         LINE#         171
  C:051EH         LINE#         172
  C:0521H         LINE#         174
  C:0526H         LINE#         175
BL51 BANKED LINKER/LOCATER V6.05                                                      05/31/2017  11:32:38  PAGE 7


  -------         ENDPROC       _LCDDRAWAREA
  -------         PROC          LCDINITIMAGE
  -------         DO            
  D:0004H         SYMBOL        i
  D:0005H         SYMBOL        j
  -------         ENDDO         
  C:06B1H         LINE#         178
  C:06B1H         LINE#         179
  C:06B1H         LINE#         182
  C:06B6H         LINE#         183
  C:06BBH         LINE#         184
  C:06BDH         LINE#         185
  C:06C4H         LINE#         186
  C:06C9H         LINE#         187
  C:06CBH         LINE#         188
  C:06CBH         LINE#         189
  C:06D0H         LINE#         190
  C:06D5H         LINE#         191
  C:06D9H         LINE#         192
  C:06DDH         LINE#         194
  C:06DFH         LINE#         195
  C:06E6H         LINE#         196
  C:06EBH         LINE#         197
  C:06EDH         LINE#         198
  C:06EDH         LINE#         199
  C:06F2H         LINE#         200
  C:06F7H         LINE#         201
  C:06FBH         LINE#         202
  C:06FFH         LINE#         203
  C:0704H         LINE#         204
  -------         ENDPROC       LCDINITIMAGE
  -------         PROC          _LCDCLEARIMAGE
  D:0003H         SYMBOL        x
  D:0005H         SYMBOL        y
  -------         DO            
  D:0004H         SYMBOL        i
  -------         ENDDO         
  C:063EH         LINE#         207
  C:0640H         LINE#         208
  C:0640H         LINE#         211
  C:0645H         LINE#         212
  C:064AH         LINE#         214
  C:0650H         LINE#         215
  C:0652H         LINE#         216
  C:065DH         LINE#         217
  C:0664H         LINE#         219
  C:0669H         LINE#         220
  C:066EH         LINE#         221
  C:0674H         LINE#         222
  C:0674H         LINE#         223
  C:0676H         LINE#         224
  C:0681H         LINE#         225
  C:0688H         LINE#         227
  C:068DH         LINE#         228
  C:0692H         LINE#         229
  C:0696H         LINE#         230
  C:0696H         LINE#         232
BL51 BANKED LINKER/LOCATER V6.05                                                      05/31/2017  11:32:38  PAGE 8


  C:06A0H         LINE#         233
  C:06A7H         LINE#         235
  C:06ACH         LINE#         236
  -------         ENDPROC       _LCDCLEARIMAGE
  -------         PROC          _LCDCLEARAREA
  D:0007H         SYMBOL        x
  D:0005H         SYMBOL        y
  -------         DO            
  C:0861H         SYMBOL        clearDat
  -------         ENDDO         
  C:0871H         LINE#         239
  C:0871H         LINE#         240
  C:0871H         LINE#         245
  -------         ENDPROC       _LCDCLEARAREA
  -------         ENDMOD        LCD12864

  -------         MODULE        MAIN
  C:0000H         SYMBOL        _ICE_DUMMY_
  D:0090H         PUBLIC        P1
  D:00A0H         PUBLIC        P2
  D:00B0H         PUBLIC        P3
  D:00A8H         PUBLIC        IE
  D:00B8H         PUBLIC        IP
  C:0479H         PUBLIC        moonImage
  C:052BH         PUBLIC        main
  D:0098H         PUBLIC        SCON
  D:0088H         PUBLIC        TCON
  C:0459H         PUBLIC        sunImage
  C:0439H         PUBLIC        ClockImage
  C:0015H         PUBLIC        prompt1
  C:001DH         PUBLIC        prompt2
  C:0029H         PUBLIC        prompt3
  D:00C8H         PUBLIC        T2CON
  C:0039H         PUBLIC        DPImage
  D:00D0H         PUBLIC        PSW
  -------         PROC          MAIN
  -------         DO            
  D:0008H         SYMBOL        i
  D:0006H         SYMBOL        j
  -------         ENDDO         
  C:052BH         LINE#         100
  C:052BH         LINE#         101
  C:052BH         LINE#         104
  C:0531H         LINE#         105
  C:0534H         LINE#         115
  C:0537H         LINE#         118
  C:0544H         LINE#         120
  C:0554H         LINE#         121
  C:0564H         LINE#         122
  C:0574H         LINE#         123
  C:0584H         LINE#         124
  C:0594H         LINE#         125
  C:05A2H         LINE#         126
  C:05A9H         LINE#         128
  C:05B6H         LINE#         130
  -------         ENDPROC       MAIN
  -------         ENDMOD        MAIN
BL51 BANKED LINKER/LOCATER V6.05                                                      05/31/2017  11:32:38  PAGE 9



  -------         MODULE        ?C?CLDPTR
  C:0756H         PUBLIC        ?C?CLDPTR
  -------         ENDMOD        ?C?CLDPTR

  -------         MODULE        ?C?ILDPTR
  C:076FH         PUBLIC        ?C?ILDPTR
  -------         ENDMOD        ?C?ILDPTR

*** WARNING L16: UNCALLED SEGMENT, IGNORED FOR OVERLAY PROCESS
    SEGMENT: ?PR?LCDSHOWCURSOR?LCD12864

*** WARNING L16: UNCALLED SEGMENT, IGNORED FOR OVERLAY PROCESS
    SEGMENT: ?PR?LCDCANCELCURSOR?LCD12864

*** WARNING L16: UNCALLED SEGMENT, IGNORED FOR OVERLAY PROCESS
    SEGMENT: ?PR?LCDCLEARALL?LCD12864

*** WARNING L16: UNCALLED SEGMENT, IGNORED FOR OVERLAY PROCESS
    SEGMENT: ?PR?_LCDSHOWIMAGE?LCD12864

*** WARNING L16: UNCALLED SEGMENT, IGNORED FOR OVERLAY PROCESS
    SEGMENT: ?PR?_LCDCLEARAREA?LCD12864

Program Size: data=20.0 xdata=0 code=2198
LINK/LOCATE RUN COMPLETE.  5 WARNING(S),  0 ERROR(S)
