BL51 BANKED LINKER/LOCATER V6.05                                                        05/29/2017  15:14:32  PAGE 1


BL51 BANKED LINKER/LOCATER V6.05, INVOKED BY:
C:\KEIL\C51\BIN\BL51.EXE ..\output\LCD12864.obj, ..\output\main.obj TO ..\output\LCD12864Test PRINT (.\LCD12864Test.m51)
>>  RAMSIZE (256)


MEMORY MODEL: SMALL


INPUT MODULES INCLUDED:
  ..\output\LCD12864.obj (LCD12864)
  ..\output\main.obj (MAIN)
  C:\KEIL\C51\LIB\C51S.LIB (?C_STARTUP)
  C:\KEIL\C51\LIB\C51S.LIB (?C?CLDPTR)
  C:\KEIL\C51\LIB\C51S.LIB (?C?ILDPTR)


LINK MAP OF MODULE:  ..\output\LCD12864Test (LCD12864)


            TYPE    BASE      LENGTH    RELOCATION   SEGMENT NAME
            -----------------------------------------------------

            * * * * * * *   D A T A   M E M O R Y   * * * * * * *
            REG     0000H     0008H     ABSOLUTE     "REG BANK 0"
            DATA    0008H     0008H     UNIT         _DATA_GROUP_
            DATA    0010H     0003H     UNIT         ?DT?_LCDSHOWIMAGE?LCD12864
            IDATA   0013H     0001H     UNIT         ?STACK

            * * * * * * *   C O D E   M E M O R Y   * * * * * * *
            CODE    0000H     0003H     ABSOLUTE     
            CODE    0003H     0496H     UNIT         ?CO?MAIN
            CODE    0499H     0092H     UNIT         ?PR?_LCDDRAWAREA?LCD12864
            CODE    052BH     0086H     UNIT         ?PR?_LCDSHOWIMAGE?LCD12864
            CODE    05B1H     0080H     UNIT         ?PR?MAIN?MAIN
            CODE    0631H     0073H     UNIT         ?PR?_LCDCLEARIMAGE?LCD12864
            CODE    06A4H     0058H     UNIT         ?PR?LCDINITIMAGE?LCD12864
            CODE    06FCH     004DH     UNIT         ?PR?_LCDSHOWCN?LCD12864
            CODE    0749H     0044H     UNIT         ?C?LIB_CODE
            CODE    078DH     002BH     UNIT         ?PR?_LCDSETCURSOR?LCD12864
            CODE    07B8H     0022H     UNIT         ?PR?_LCDSHOWSTR?LCD12864
            CODE    07DAH     001EH     UNIT         ?PR?INITLCD12864?LCD12864
            CODE    07F8H     0019H     UNIT         ?PR?_LCDWRITECMD?LCD12864
            CODE    0811H     0019H     UNIT         ?PR?LCDCLEARALL?LCD12864
            CODE    082AH     0016H     UNIT         ?PR?_LCDWRITEDATA?LCD12864
            CODE    0840H     0012H     UNIT         ?PR?LCDWAITREADY?LCD12864
            CODE    0852H     000CH     UNIT         ?C_C51STARTUP
            CODE    085EH     0005H     UNIT         ?PR?LCDSHOWCURSOR?LCD12864
            CODE    0863H     0005H     UNIT         ?PR?LCDCANCELCURSOR?LCD12864
            CODE    0868H     0002H     UNIT         ?CO?LCD12864



OVERLAY MAP OF MODULE:   ..\output\LCD12864Test (LCD12864)


SEGMENT                                DATA_GROUP 
  +--> CALLED SEGMENT                START    LENGTH
----------------------------------------------------
BL51 BANKED LINKER/LOCATER V6.05                                                      05/29/2017  15:14:32  PAGE 2


?C_C51STARTUP                        -----    -----
  +--> ?PR?MAIN?MAIN

?PR?MAIN?MAIN                        0008H    0002H
  +--> ?PR?INITLCD12864?LCD12864
  +--> ?PR?LCDINITIMAGE?LCD12864
  +--> ?CO?MAIN
  +--> ?PR?_LCDDRAWAREA?LCD12864
  +--> ?PR?_LCDSHOWSTR?LCD12864
  +--> ?PR?_LCDSHOWCN?LCD12864
  +--> ?PR?_LCDCLEARIMAGE?LCD12864

?PR?INITLCD12864?LCD12864            -----    -----
  +--> ?PR?_LCDWRITECMD?LCD12864
  +--> ?CO?LCD12864
  +--> ?PR?_LCDSHOWSTR?LCD12864

?PR?_LCDWRITECMD?LCD12864            -----    -----
  +--> ?PR?LCDWAITREADY?LCD12864

?PR?_LCDSHOWSTR?LCD12864             000AH    0006H
  +--> ?PR?_LCDSETCURSOR?LCD12864
  +--> ?PR?_LCDWRITEDATA?LCD12864

?PR?_LCDSETCURSOR?LCD12864           -----    -----
  +--> ?PR?_LCDWRITECMD?LCD12864

?PR?_LCDWRITEDATA?LCD12864           -----    -----
  +--> ?PR?LCDWAITREADY?LCD12864

?PR?LCDINITIMAGE?LCD12864            -----    -----
  +--> ?PR?_LCDWRITECMD?LCD12864
  +--> ?PR?_LCDWRITEDATA?LCD12864

?PR?_LCDDRAWAREA?LCD12864            000AH    0004H
  +--> ?PR?_LCDWRITECMD?LCD12864
  +--> ?PR?_LCDWRITEDATA?LCD12864

?PR?_LCDSHOWCN?LCD12864              000AH    0006H
  +--> ?PR?_LCDSETCURSOR?LCD12864
  +--> ?PR?_LCDWRITEDATA?LCD12864

?PR?_LCDCLEARIMAGE?LCD12864          -----    -----
  +--> ?PR?_LCDWRITECMD?LCD12864
  +--> ?PR?_LCDWRITEDATA?LCD12864



SYMBOL TABLE OF MODULE:  ..\output\LCD12864Test (LCD12864)

  VALUE           TYPE          NAME
  ----------------------------------

  -------         MODULE        LCD12864
  C:0000H         SYMBOL        _ICE_DUMMY_
  D:0080H         PUBLIC        P0
  D:0090H         PUBLIC        P1
BL51 BANKED LINKER/LOCATER V6.05                                                      05/29/2017  15:14:32  PAGE 3


  D:00A0H         PUBLIC        P2
  D:00B0H         PUBLIC        P3
  C:078DH         PUBLIC        _LCDSetCursor
  C:06FCH         PUBLIC        _LCDShowCN
  D:00A8H         PUBLIC        IE
  D:00B8H         PUBLIC        IP
  C:0863H         PUBLIC        LCDCancelCursor
  C:0631H         PUBLIC        _LCDClearImage
  C:07B8H         PUBLIC        _LCDShowStr
  D:0098H         PUBLIC        SCON
  D:0088H         PUBLIC        TCON
  B:0090H.5       PUBLIC        LCD12864_EN
  C:06A4H         PUBLIC        LCDInitImage
  C:0811H         PUBLIC        LCDClearAll
  C:052BH         PUBLIC        _LCDShowImage
  C:0830H         PUBLIC        _LCDWriteData
  C:0499H         PUBLIC        _LCDDrawArea
  B:0090H.0       PUBLIC        LCD12864_RS
  C:0840H         PUBLIC        LCDWaitReady
  B:0090H.1       PUBLIC        LCD12864_RW
  D:00C8H         PUBLIC        T2CON
  C:07DAH         PUBLIC        InitLCD12864
  C:0801H         PUBLIC        _LCDWriteCmd
  C:085EH         PUBLIC        LCDShowCursor
  D:00D0H         PUBLIC        PSW
  -------         PROC          LCDWAITREADY
  -------         DO            
  D:0007H         SYMBOL        tmp
  -------         ENDDO         
  C:0840H         LINE#         6
  C:0840H         LINE#         7
  C:0840H         LINE#         8
  C:0840H         LINE#         10
  C:0842H         LINE#         11
  C:0844H         LINE#         12
  C:0844H         LINE#         13
  C:0846H         LINE#         14
  C:084BH         LINE#         15
  C:084DH         LINE#         16
  C:084FH         LINE#         17
  C:0851H         LINE#         18
  -------         ENDPROC       LCDWAITREADY
  -------         PROC          L?0081
  -------         ENDPROC       L?0081
  -------         PROC          _LCDWRITECMD
  D:0006H         SYMBOL        cmd
  C:0801H         LINE#         20
  C:0803H         LINE#         21
  C:0803H         LINE#         22
  C:0806H         LINE#         23
  C:0808H         LINE#         24
  C:080AH         LINE#         25
  C:080CH         LINE#         26
  C:080EH         LINE#         27
  C:0810H         LINE#         28
  -------         ENDPROC       _LCDWRITECMD
  C:082AH         SYMBOL        L?0080
BL51 BANKED LINKER/LOCATER V6.05                                                      05/29/2017  15:14:32  PAGE 4


  -------         PROC          L?0079
  -------         ENDPROC       L?0079
  C:082AH         SYMBOL        L?0080
  -------         PROC          _LCDWRITEDATA
  D:0006H         SYMBOL        dat
  C:0830H         LINE#         30
  C:0832H         LINE#         31
  C:0832H         LINE#         32
  C:0835H         LINE#         33
  C:0837H         LINE#         34
  C:0839H         LINE#         35
  C:083BH         LINE#         36
  C:083DH         LINE#         37
  C:083FH         LINE#         38
  -------         ENDPROC       _LCDWRITEDATA
  -------         PROC          INITLCD12864
  C:07DAH         LINE#         40
  C:07DAH         LINE#         41
  C:07DAH         LINE#         42
  C:07DFH         LINE#         43
  C:07E4H         LINE#         44
  C:07E9H         LINE#         45
  -------         ENDPROC       INITLCD12864
  -------         PROC          _LCDSHOWSTR
  D:0007H         SYMBOL        x
  D:0005H         SYMBOL        y
  D:000CH         SYMBOL        str
  D:000FH         SYMBOL        strlen
  C:07B8H         LINE#         48
  C:07BEH         LINE#         49
  C:07BEH         LINE#         50
  C:07C1H         LINE#         51
  C:07C1H         LINE#         52
  C:07D0H         LINE#         53
  C:07D2H         LINE#         54
  C:07D9H         LINE#         55
  -------         ENDPROC       _LCDSHOWSTR
  -------         PROC          _LCDSHOWCN
  D:000AH         SYMBOL        x
  D:000BH         SYMBOL        y
  D:000CH         SYMBOL        str
  D:000FH         SYMBOL        strlen
  -------         DO            
  D:0003H         SYMBOL        msb
  D:0005H         SYMBOL        lsb
  -------         ENDDO         
  C:06FCH         LINE#         57
  C:0706H         LINE#         58
  C:0706H         LINE#         61
  C:0710H         LINE#         62
  C:0717H         LINE#         63
  C:0719H         LINE#         64
  C:0720H         LINE#         65
  C:0723H         LINE#         66
  C:0725H         LINE#         67
  C:0725H         LINE#         68
  C:0732H         LINE#         69
BL51 BANKED LINKER/LOCATER V6.05                                                      05/29/2017  15:14:32  PAGE 5


  C:0732H         LINE#         70
  C:0736H         LINE#         71
  C:073BH         LINE#         72
  C:0746H         LINE#         73
  C:0748H         LINE#         74
  -------         ENDPROC       _LCDSHOWCN
  -------         PROC          _LCDSETCURSOR
  D:0006H         SYMBOL        x
  D:0005H         SYMBOL        y
  -------         DO            
  D:0007H         SYMBOL        pos
  -------         ENDDO         
  C:078DH         LINE#         76
  C:078FH         LINE#         77
  C:078FH         LINE#         78
  C:0791H         LINE#         80
  C:079FH         LINE#         81
  C:079FH         LINE#         82
  C:079FH         LINE#         83
  C:07A3H         LINE#         84
  C:07A5H         LINE#         85
  C:07A5H         LINE#         86
  C:07A9H         LINE#         87
  C:07ABH         LINE#         88
  C:07ABH         LINE#         89
  C:07AFH         LINE#         90
  C:07B1H         LINE#         91
  C:07B1H         LINE#         92
  C:07B5H         LINE#         93
  C:07B5H         LINE#         94
  C:07B5H         LINE#         95
  C:07B5H         LINE#         96
  C:07B5H         LINE#         97
  -------         ENDPROC       _LCDSETCURSOR
  -------         PROC          LCDSHOWCURSOR
  C:085EH         LINE#         100
  C:085EH         LINE#         101
  C:085EH         LINE#         102
  -------         ENDPROC       LCDSHOWCURSOR
  -------         PROC          LCDCANCELCURSOR
  C:0863H         LINE#         105
  C:0863H         LINE#         106
  C:0863H         LINE#         107
  -------         ENDPROC       LCDCANCELCURSOR
  -------         PROC          LCDCLEARALL
  C:0811H         LINE#         110
  C:0811H         LINE#         111
  C:0811H         LINE#         112
  C:0816H         LINE#         113
  C:081BH         LINE#         114
  -------         ENDPROC       LCDCLEARALL
  -------         PROC          _LCDSHOWIMAGE
  D:0010H         SYMBOL        image
  -------         DO            
  D:0004H         SYMBOL        i
  D:0005H         SYMBOL        j
  -------         ENDDO         
BL51 BANKED LINKER/LOCATER V6.05                                                      05/29/2017  15:14:32  PAGE 6


  C:052BH         LINE#         117
  C:0531H         LINE#         118
  C:0531H         LINE#         121
  C:0536H         LINE#         122
  C:053BH         LINE#         123
  C:053DH         LINE#         124
  C:0544H         LINE#         125
  C:0549H         LINE#         126
  C:054BH         LINE#         127
  C:054BH         LINE#         128
  C:055AH         LINE#         129
  C:0569H         LINE#         130
  C:056DH         LINE#         131
  C:0571H         LINE#         133
  C:0573H         LINE#         134
  C:057AH         LINE#         135
  C:057FH         LINE#         136
  C:0581H         LINE#         137
  C:0581H         LINE#         138
  C:0590H         LINE#         139
  C:059FH         LINE#         140
  C:05A3H         LINE#         141
  C:05A7H         LINE#         142
  C:05ACH         LINE#         143
  -------         ENDPROC       _LCDSHOWIMAGE
  -------         PROC          _LCDDRAWAREA
  D:000AH         SYMBOL        x
  D:0005H         SYMBOL        y
  D:000BH         SYMBOL        image
  -------         DO            
  D:0004H         SYMBOL        i
  -------         ENDDO         
  C:0499H         LINE#         146
  C:04A1H         LINE#         147
  C:04A1H         LINE#         150
  C:04A6H         LINE#         151
  C:04ABH         LINE#         153
  C:04B1H         LINE#         154
  C:04B3H         LINE#         155
  C:04BAH         LINE#         156
  C:04BDH         LINE#         158
  C:04CCH         LINE#         159
  C:04DBH         LINE#         160
  C:04E1H         LINE#         161
  C:04E1H         LINE#         162
  C:04E3H         LINE#         163
  C:04EEH         LINE#         164
  C:04F6H         LINE#         166
  C:0505H         LINE#         167
  C:0514H         LINE#         168
  C:0518H         LINE#         169
  C:0518H         LINE#         171
  C:051EH         LINE#         172
  C:0521H         LINE#         174
  C:0526H         LINE#         175
  -------         ENDPROC       _LCDDRAWAREA
  -------         PROC          LCDINITIMAGE
BL51 BANKED LINKER/LOCATER V6.05                                                      05/29/2017  15:14:32  PAGE 7


  -------         DO            
  D:0004H         SYMBOL        i
  D:0005H         SYMBOL        j
  -------         ENDDO         
  C:06A4H         LINE#         178
  C:06A4H         LINE#         179
  C:06A4H         LINE#         182
  C:06A9H         LINE#         183
  C:06AEH         LINE#         184
  C:06B0H         LINE#         185
  C:06B7H         LINE#         186
  C:06BCH         LINE#         187
  C:06BEH         LINE#         188
  C:06BEH         LINE#         189
  C:06C3H         LINE#         190
  C:06C8H         LINE#         191
  C:06CCH         LINE#         192
  C:06D0H         LINE#         194
  C:06D2H         LINE#         195
  C:06D9H         LINE#         196
  C:06DEH         LINE#         197
  C:06E0H         LINE#         198
  C:06E0H         LINE#         199
  C:06E5H         LINE#         200
  C:06EAH         LINE#         201
  C:06EEH         LINE#         202
  C:06F2H         LINE#         203
  C:06F7H         LINE#         204
  -------         ENDPROC       LCDINITIMAGE
  -------         PROC          _LCDCLEARIMAGE
  D:0003H         SYMBOL        x
  D:0005H         SYMBOL        y
  -------         DO            
  D:0004H         SYMBOL        i
  -------         ENDDO         
  C:0631H         LINE#         207
  C:0633H         LINE#         208
  C:0633H         LINE#         211
  C:0638H         LINE#         212
  C:063DH         LINE#         214
  C:0643H         LINE#         215
  C:0645H         LINE#         216
  C:0650H         LINE#         217
  C:0657H         LINE#         219
  C:065CH         LINE#         220
  C:0661H         LINE#         221
  C:0667H         LINE#         222
  C:0667H         LINE#         223
  C:0669H         LINE#         224
  C:0674H         LINE#         225
  C:067BH         LINE#         227
  C:0680H         LINE#         228
  C:0685H         LINE#         229
  C:0689H         LINE#         230
  C:0689H         LINE#         232
  C:0693H         LINE#         233
  C:069AH         LINE#         235
BL51 BANKED LINKER/LOCATER V6.05                                                      05/29/2017  15:14:32  PAGE 8


  C:069FH         LINE#         236
  -------         ENDPROC       _LCDCLEARIMAGE
  -------         ENDMOD        LCD12864

  -------         MODULE        MAIN
  C:0000H         SYMBOL        _ICE_DUMMY_
  D:0090H         PUBLIC        P1
  D:00A0H         PUBLIC        P2
  D:00B0H         PUBLIC        P3
  D:00A8H         PUBLIC        IE
  D:00B8H         PUBLIC        IP
  C:0479H         PUBLIC        moonImage
  C:05B1H         PUBLIC        main
  D:0098H         PUBLIC        SCON
  D:0088H         PUBLIC        TCON
  C:0459H         PUBLIC        sunImage
  C:0439H         PUBLIC        ClockImage
  C:0015H         PUBLIC        prompt1
  C:001DH         PUBLIC        prompt2
  C:0029H         PUBLIC        prompt3
  D:00C8H         PUBLIC        T2CON
  C:0039H         PUBLIC        DPImage
  D:00D0H         PUBLIC        PSW
  -------         PROC          MAIN
  -------         DO            
  D:0008H         SYMBOL        i
  D:0006H         SYMBOL        j
  -------         ENDDO         
  C:05B1H         LINE#         100
  C:05B1H         LINE#         101
  C:05B1H         LINE#         104
  C:05B7H         LINE#         105
  C:05BAH         LINE#         115
  C:05BDH         LINE#         118
  C:05CAH         LINE#         120
  C:05DAH         LINE#         121
  C:05EAH         LINE#         122
  C:05FAH         LINE#         123
  C:060AH         LINE#         124
  C:061AH         LINE#         125
  C:0628H         LINE#         126
  C:062FH         LINE#         128
  -------         ENDPROC       MAIN
  -------         ENDMOD        MAIN

  -------         MODULE        ?C?CLDPTR
  C:0749H         PUBLIC        ?C?CLDPTR
  -------         ENDMOD        ?C?CLDPTR

  -------         MODULE        ?C?ILDPTR
  C:0762H         PUBLIC        ?C?ILDPTR
  -------         ENDMOD        ?C?ILDPTR

*** WARNING L16: UNCALLED SEGMENT, IGNORED FOR OVERLAY PROCESS
    SEGMENT: ?PR?LCDSHOWCURSOR?LCD12864

*** WARNING L16: UNCALLED SEGMENT, IGNORED FOR OVERLAY PROCESS
BL51 BANKED LINKER/LOCATER V6.05                                                      05/29/2017  15:14:32  PAGE 9


    SEGMENT: ?PR?LCDCANCELCURSOR?LCD12864

*** WARNING L16: UNCALLED SEGMENT, IGNORED FOR OVERLAY PROCESS
    SEGMENT: ?PR?LCDCLEARALL?LCD12864

*** WARNING L16: UNCALLED SEGMENT, IGNORED FOR OVERLAY PROCESS
    SEGMENT: ?PR?_LCDSHOWIMAGE?LCD12864

Program Size: data=20.0 xdata=0 code=2154
LINK/LOCATE RUN COMPLETE.  4 WARNING(S),  0 ERROR(S)
