BL51 BANKED LINKER/LOCATER V6.05                                                        05/29/2017  14:41:21  PAGE 1


BL51 BANKED LINKER/LOCATER V6.05, INVOKED BY:
C:\KEIL\C51\BIN\BL51.EXE ..\output\LCD12864.obj, ..\output\main.obj TO ..\output\LCD12864Test PRINT (.\LCD12864Test.m51)
>>  RAMSIZE (256)


MEMORY MODEL: SMALL


INPUT MODULES INCLUDED:
  ..\output\LCD12864.obj (LCD12864)
  ..\output\main.obj (MAIN)
  C:\KEIL\C51\LIB\C51S.LIB (?C_STARTUP)
  C:\KEIL\C51\LIB\C51S.LIB (?C?CLDPTR)
  C:\KEIL\C51\LIB\C51S.LIB (?C?ILDPTR)


LINK MAP OF MODULE:  ..\output\LCD12864Test (LCD12864)


            TYPE    BASE      LENGTH    RELOCATION   SEGMENT NAME
            -----------------------------------------------------

            * * * * * * *   D A T A   M E M O R Y   * * * * * * *
            REG     0000H     0008H     ABSOLUTE     "REG BANK 0"
            DATA    0008H     0008H     UNIT         _DATA_GROUP_
            DATA    0010H     0006H     UNIT         ?DT?_LCDSHOWCN?LCD12864
            DATA    0016H     0003H     UNIT         ?DT?_LCDSHOWIMAGE?LCD12864
            IDATA   0019H     0001H     UNIT         ?STACK

            * * * * * * *   C O D E   M E M O R Y   * * * * * * *
            CODE    0000H     0003H     ABSOLUTE     
            CODE    0003H     0092H     UNIT         ?PR?_LCDDRAWAREA?LCD12864
            CODE    0095H     0084H     UNIT         ?CO?MAIN
            CODE    0119H     007EH     UNIT         ?PR?_LCDSHOWIMAGE?LCD12864
            CODE    0197H     0050H     UNIT         ?PR?LCDINITIMAGE?LCD12864
            CODE    01E7H     004DH     UNIT         ?PR?_LCDSHOWCN?LCD12864
            CODE    0234H     0044H     UNIT         ?C?LIB_CODE
            CODE    0278H     002BH     UNIT         ?PR?_LCDSETCURSOR?LCD12864
            CODE    02A3H     0022H     UNIT         ?PR?_LCDSHOWSTR?LCD12864
            CODE    02C5H     001EH     UNIT         ?PR?INITLCD12864?LCD12864
            CODE    02E3H     0019H     UNIT         ?PR?LCDCLEARALL?LCD12864
            CODE    02FCH     0018H     UNIT         ?PR?MAIN?MAIN
            CODE    0314H     0016H     UNIT         ?PR?_LCDWRITEDATA?LCD12864
            CODE    032AH     0014H     UNIT         ?PR?_LCDWRITECMD?LCD12864
            CODE    033EH     0012H     UNIT         ?PR?LCDWAITREADY?LCD12864
            CODE    0350H     000CH     UNIT         ?C_C51STARTUP
            CODE    035CH     0005H     UNIT         ?PR?LCDSHOWCURSOR?LCD12864
            CODE    0361H     0005H     UNIT         ?PR?LCDCANCELCURSOR?LCD12864
            CODE    0366H     0002H     UNIT         ?CO?LCD12864



OVERLAY MAP OF MODULE:   ..\output\LCD12864Test (LCD12864)


SEGMENT                                DATA_GROUP 
  +--> CALLED SEGMENT                START    LENGTH
----------------------------------------------------
BL51 BANKED LINKER/LOCATER V6.05                                                      05/29/2017  14:41:21  PAGE 2


?C_C51STARTUP                        -----    -----
  +--> ?PR?MAIN?MAIN

?PR?MAIN?MAIN                        0008H    0002H
  +--> ?PR?INITLCD12864?LCD12864
  +--> ?CO?MAIN
  +--> ?PR?_LCDDRAWAREA?LCD12864

?PR?INITLCD12864?LCD12864            -----    -----
  +--> ?PR?_LCDWRITECMD?LCD12864
  +--> ?CO?LCD12864
  +--> ?PR?_LCDSHOWSTR?LCD12864

?PR?_LCDWRITECMD?LCD12864            -----    -----
  +--> ?PR?LCDWAITREADY?LCD12864

?PR?_LCDSHOWSTR?LCD12864             000AH    0006H
  +--> ?PR?_LCDSETCURSOR?LCD12864
  +--> ?PR?_LCDWRITEDATA?LCD12864

?PR?_LCDSETCURSOR?LCD12864           -----    -----
  +--> ?PR?_LCDWRITECMD?LCD12864

?PR?_LCDWRITEDATA?LCD12864           -----    -----
  +--> ?PR?LCDWAITREADY?LCD12864

?PR?_LCDDRAWAREA?LCD12864            000AH    0004H
  +--> ?PR?_LCDWRITECMD?LCD12864
  +--> ?PR?_LCDWRITEDATA?LCD12864



SYMBOL TABLE OF MODULE:  ..\output\LCD12864Test (LCD12864)

  VALUE           TYPE          NAME
  ----------------------------------

  -------         MODULE        LCD12864
  C:0000H         SYMBOL        _ICE_DUMMY_
  D:0080H         PUBLIC        P0
  D:0090H         PUBLIC        P1
  D:00A0H         PUBLIC        P2
  D:00B0H         PUBLIC        P3
  C:0278H         PUBLIC        _LCDSetCursor
  C:01E7H         PUBLIC        _LCDShowCN
  D:00A8H         PUBLIC        IE
  D:00B8H         PUBLIC        IP
  C:0361H         PUBLIC        LCDCancelCursor
  C:02A3H         PUBLIC        _LCDShowStr
  D:0098H         PUBLIC        SCON
  D:0088H         PUBLIC        TCON
  B:0090H.5       PUBLIC        LCD12864_EN
  C:0197H         PUBLIC        LCDInitImage
  C:02E3H         PUBLIC        LCDClearAll
  C:0119H         PUBLIC        _LCDShowImage
  C:031AH         PUBLIC        _LCDWriteData
  C:0003H         PUBLIC        _LCDDrawArea
BL51 BANKED LINKER/LOCATER V6.05                                                      05/29/2017  14:41:21  PAGE 3


  B:0090H.0       PUBLIC        LCD12864_RS
  C:033EH         PUBLIC        LCDWaitReady
  B:0090H.1       PUBLIC        LCD12864_RW
  D:00C8H         PUBLIC        T2CON
  C:02C5H         PUBLIC        InitLCD12864
  C:032EH         PUBLIC        _LCDWriteCmd
  C:035CH         PUBLIC        LCDShowCursor
  D:00D0H         PUBLIC        PSW
  -------         PROC          LCDWAITREADY
  -------         DO            
  D:0007H         SYMBOL        tmp
  -------         ENDDO         
  C:033EH         LINE#         6
  C:033EH         LINE#         7
  C:033EH         LINE#         8
  C:033EH         LINE#         10
  C:0340H         LINE#         11
  C:0342H         LINE#         12
  C:0342H         LINE#         13
  C:0344H         LINE#         14
  C:0349H         LINE#         15
  C:034BH         LINE#         16
  C:034DH         LINE#         17
  C:034FH         LINE#         18
  -------         ENDPROC       LCDWAITREADY
  C:032AH         SYMBOL        L?0073
  -------         PROC          L?0072
  -------         ENDPROC       L?0072
  C:032AH         SYMBOL        L?0073
  -------         PROC          _LCDWRITECMD
  D:0006H         SYMBOL        cmd
  C:032EH         LINE#         20
  C:0330H         LINE#         21
  C:0330H         LINE#         22
  C:0333H         LINE#         23
  C:0335H         LINE#         24
  C:0337H         LINE#         25
  C:0339H         LINE#         26
  C:033BH         LINE#         27
  C:033DH         LINE#         28
  -------         ENDPROC       _LCDWRITECMD
  C:0314H         SYMBOL        L?0071
  -------         PROC          L?0070
  -------         ENDPROC       L?0070
  C:0314H         SYMBOL        L?0071
  -------         PROC          _LCDWRITEDATA
  D:0006H         SYMBOL        dat
  C:031AH         LINE#         30
  C:031CH         LINE#         31
  C:031CH         LINE#         32
  C:031FH         LINE#         33
  C:0321H         LINE#         34
  C:0323H         LINE#         35
  C:0325H         LINE#         36
  C:0327H         LINE#         37
  C:0329H         LINE#         38
  -------         ENDPROC       _LCDWRITEDATA
BL51 BANKED LINKER/LOCATER V6.05                                                      05/29/2017  14:41:21  PAGE 4


  -------         PROC          INITLCD12864
  C:02C5H         LINE#         40
  C:02C5H         LINE#         41
  C:02C5H         LINE#         42
  C:02CAH         LINE#         43
  C:02CFH         LINE#         44
  C:02D4H         LINE#         45
  -------         ENDPROC       INITLCD12864
  -------         PROC          _LCDSHOWSTR
  D:0007H         SYMBOL        x
  D:0005H         SYMBOL        y
  D:000CH         SYMBOL        str
  D:000FH         SYMBOL        strlen
  C:02A3H         LINE#         48
  C:02A9H         LINE#         49
  C:02A9H         LINE#         50
  C:02ACH         LINE#         51
  C:02ACH         LINE#         52
  C:02BBH         LINE#         53
  C:02BDH         LINE#         54
  C:02C4H         LINE#         55
  -------         ENDPROC       _LCDSHOWSTR
  -------         PROC          _LCDSHOWCN
  D:0010H         SYMBOL        x
  D:0011H         SYMBOL        y
  D:0012H         SYMBOL        str
  D:0015H         SYMBOL        strlen
  -------         DO            
  D:0003H         SYMBOL        msb
  D:0005H         SYMBOL        lsb
  -------         ENDDO         
  C:01E7H         LINE#         57
  C:01F1H         LINE#         58
  C:01F1H         LINE#         61
  C:01FBH         LINE#         62
  C:0202H         LINE#         63
  C:0204H         LINE#         64
  C:020BH         LINE#         65
  C:020EH         LINE#         66
  C:0210H         LINE#         67
  C:0210H         LINE#         68
  C:021DH         LINE#         69
  C:021DH         LINE#         70
  C:0221H         LINE#         71
  C:0226H         LINE#         72
  C:0231H         LINE#         73
  C:0233H         LINE#         74
  -------         ENDPROC       _LCDSHOWCN
  -------         PROC          _LCDSETCURSOR
  D:0006H         SYMBOL        x
  D:0005H         SYMBOL        y
  -------         DO            
  D:0007H         SYMBOL        pos
  -------         ENDDO         
  C:0278H         LINE#         76
  C:027AH         LINE#         77
  C:027AH         LINE#         78
BL51 BANKED LINKER/LOCATER V6.05                                                      05/29/2017  14:41:21  PAGE 5


  C:027CH         LINE#         80
  C:028AH         LINE#         81
  C:028AH         LINE#         82
  C:028AH         LINE#         83
  C:028EH         LINE#         84
  C:0290H         LINE#         85
  C:0290H         LINE#         86
  C:0294H         LINE#         87
  C:0296H         LINE#         88
  C:0296H         LINE#         89
  C:029AH         LINE#         90
  C:029CH         LINE#         91
  C:029CH         LINE#         92
  C:02A0H         LINE#         93
  C:02A0H         LINE#         94
  C:02A0H         LINE#         95
  C:02A0H         LINE#         96
  C:02A0H         LINE#         97
  -------         ENDPROC       _LCDSETCURSOR
  -------         PROC          LCDSHOWCURSOR
  C:035CH         LINE#         100
  C:035CH         LINE#         101
  C:035CH         LINE#         102
  -------         ENDPROC       LCDSHOWCURSOR
  -------         PROC          LCDCANCELCURSOR
  C:0361H         LINE#         105
  C:0361H         LINE#         106
  C:0361H         LINE#         107
  -------         ENDPROC       LCDCANCELCURSOR
  -------         PROC          LCDCLEARALL
  C:02E3H         LINE#         110
  C:02E3H         LINE#         111
  C:02E3H         LINE#         112
  C:02E8H         LINE#         113
  C:02EDH         LINE#         114
  -------         ENDPROC       LCDCLEARALL
  -------         PROC          _LCDSHOWIMAGE
  D:0016H         SYMBOL        image
  -------         DO            
  D:0004H         SYMBOL        i
  D:0005H         SYMBOL        j
  -------         ENDDO         
  C:0119H         LINE#         117
  C:011FH         LINE#         118
  C:011FH         LINE#         121
  C:0124H         LINE#         122
  C:0129H         LINE#         123
  C:012BH         LINE#         124
  C:012EH         LINE#         125
  C:0133H         LINE#         126
  C:0135H         LINE#         127
  C:0135H         LINE#         128
  C:0144H         LINE#         129
  C:0153H         LINE#         130
  C:0157H         LINE#         131
  C:015BH         LINE#         133
  C:015DH         LINE#         134
BL51 BANKED LINKER/LOCATER V6.05                                                      05/29/2017  14:41:21  PAGE 6


  C:0160H         LINE#         135
  C:0165H         LINE#         136
  C:0167H         LINE#         137
  C:0167H         LINE#         138
  C:0176H         LINE#         139
  C:0185H         LINE#         140
  C:0189H         LINE#         141
  C:018DH         LINE#         142
  C:0192H         LINE#         143
  -------         ENDPROC       _LCDSHOWIMAGE
  -------         PROC          _LCDDRAWAREA
  D:000AH         SYMBOL        x
  D:0005H         SYMBOL        y
  D:000BH         SYMBOL        image
  -------         DO            
  D:0004H         SYMBOL        i
  -------         ENDDO         
  C:0003H         LINE#         146
  C:000BH         LINE#         147
  C:000BH         LINE#         150
  C:0010H         LINE#         151
  C:0015H         LINE#         153
  C:001BH         LINE#         154
  C:001DH         LINE#         155
  C:0028H         LINE#         156
  C:0030H         LINE#         158
  C:003FH         LINE#         159
  C:004EH         LINE#         160
  C:0054H         LINE#         161
  C:0054H         LINE#         162
  C:0056H         LINE#         163
  C:0061H         LINE#         164
  C:0069H         LINE#         166
  C:0078H         LINE#         167
  C:0087H         LINE#         168
  C:008BH         LINE#         169
  C:008BH         LINE#         170
  C:0090H         LINE#         171
  -------         ENDPROC       _LCDDRAWAREA
  -------         PROC          LCDINITIMAGE
  -------         DO            
  D:0004H         SYMBOL        i
  D:0005H         SYMBOL        j
  -------         ENDDO         
  C:0197H         LINE#         174
  C:0197H         LINE#         175
  C:0197H         LINE#         178
  C:019CH         LINE#         179
  C:01A1H         LINE#         180
  C:01A3H         LINE#         181
  C:01A6H         LINE#         182
  C:01ABH         LINE#         183
  C:01ADH         LINE#         184
  C:01ADH         LINE#         185
  C:01B2H         LINE#         186
  C:01B7H         LINE#         187
  C:01BBH         LINE#         188
BL51 BANKED LINKER/LOCATER V6.05                                                      05/29/2017  14:41:21  PAGE 7


  C:01BFH         LINE#         190
  C:01C1H         LINE#         191
  C:01C4H         LINE#         192
  C:01C9H         LINE#         193
  C:01CBH         LINE#         194
  C:01CBH         LINE#         195
  C:01D0H         LINE#         196
  C:01D5H         LINE#         197
  C:01D9H         LINE#         198
  C:01DDH         LINE#         199
  C:01E2H         LINE#         200
  -------         ENDPROC       LCDINITIMAGE
  -------         ENDMOD        LCD12864

  -------         MODULE        MAIN
  C:0000H         SYMBOL        _ICE_DUMMY_
  D:0090H         PUBLIC        P1
  D:00A0H         PUBLIC        P2
  D:00B0H         PUBLIC        P3
  D:00A8H         PUBLIC        IE
  D:00B8H         PUBLIC        IP
  C:00F9H         PUBLIC        moonImage
  C:02FCH         PUBLIC        main
  D:0098H         PUBLIC        SCON
  D:0088H         PUBLIC        TCON
  C:00D9H         PUBLIC        sunImage
  C:00B9H         PUBLIC        ClockImage
  C:0095H         PUBLIC        prompt1
  C:009DH         PUBLIC        prompt2
  C:00A9H         PUBLIC        prompt3
  D:00C8H         PUBLIC        T2CON
  D:00D0H         PUBLIC        PSW
  -------         PROC          MAIN
  -------         DO            
  D:0008H         SYMBOL        i
  -------         ENDDO         
  C:02FCH         LINE#         35
  C:02FCH         LINE#         36
  C:02FCH         LINE#         39
  C:0302H         LINE#         40
  C:0305H         LINE#         54
  C:0312H         LINE#         62
  -------         ENDPROC       MAIN
  -------         ENDMOD        MAIN

  -------         MODULE        ?C?CLDPTR
  C:0234H         PUBLIC        ?C?CLDPTR
  -------         ENDMOD        ?C?CLDPTR

  -------         MODULE        ?C?ILDPTR
  C:024DH         PUBLIC        ?C?ILDPTR
  -------         ENDMOD        ?C?ILDPTR

*** WARNING L16: UNCALLED SEGMENT, IGNORED FOR OVERLAY PROCESS
    SEGMENT: ?PR?_LCDSHOWCN?LCD12864

*** WARNING L16: UNCALLED SEGMENT, IGNORED FOR OVERLAY PROCESS
BL51 BANKED LINKER/LOCATER V6.05                                                      05/29/2017  14:41:21  PAGE 8


    SEGMENT: ?PR?LCDSHOWCURSOR?LCD12864

*** WARNING L16: UNCALLED SEGMENT, IGNORED FOR OVERLAY PROCESS
    SEGMENT: ?PR?LCDCANCELCURSOR?LCD12864

*** WARNING L16: UNCALLED SEGMENT, IGNORED FOR OVERLAY PROCESS
    SEGMENT: ?PR?LCDCLEARALL?LCD12864

*** WARNING L16: UNCALLED SEGMENT, IGNORED FOR OVERLAY PROCESS
    SEGMENT: ?PR?_LCDSHOWIMAGE?LCD12864

*** WARNING L16: UNCALLED SEGMENT, IGNORED FOR OVERLAY PROCESS
    SEGMENT: ?PR?LCDINITIMAGE?LCD12864

Program Size: data=26.0 xdata=0 code=872
LINK/LOCATE RUN COMPLETE.  6 WARNING(S),  0 ERROR(S)
