BL51 BANKED LINKER/LOCATER V6.05                                                        05/29/2017  09:41:01  PAGE 1


BL51 BANKED LINKER/LOCATER V6.05, INVOKED BY:
C:\KEIL\C51\BIN\BL51.EXE ..\output\LCD12864.obj, ..\output\main.obj TO ..\output\LCD12864Test PRINT (.\LCD12864Test.m51)
>>  RAMSIZE (256)


MEMORY MODEL: SMALL


INPUT MODULES INCLUDED:
  ..\output\LCD12864.obj (LCD12864)
  ..\output\main.obj (MAIN)
  C:\KEIL\C51\LIB\C51S.LIB (?C_STARTUP)
  C:\KEIL\C51\LIB\C51S.LIB (?C?CLDPTR)
  C:\KEIL\C51\LIB\C51S.LIB (?C?ILDPTR)


LINK MAP OF MODULE:  ..\output\LCD12864Test (LCD12864)


            TYPE    BASE      LENGTH    RELOCATION   SEGMENT NAME
            -----------------------------------------------------

            * * * * * * *   D A T A   M E M O R Y   * * * * * * *
            REG     0000H     0008H     ABSOLUTE     "REG BANK 0"
            DATA    0008H     0008H     UNIT         _DATA_GROUP_
            DATA    0010H     0006H     UNIT         ?DT?_LCDSHOWCN?LCD12864
            DATA    0016H     0003H     UNIT         ?DT?_LCDSHOWIMAGE?LCD12864
            IDATA   0019H     0001H     UNIT         ?STACK

            * * * * * * *   C O D E   M E M O R Y   * * * * * * *
            CODE    0000H     0003H     ABSOLUTE     
            CODE    0003H     0416H     UNIT         ?CO?MAIN
            CODE    0419H     0081H     UNIT         ?PR?_LCDSHOWIMAGE?LCD12864
            CODE    049AH     004DH     UNIT         ?PR?_LCDSHOWCN?LCD12864
            CODE    04E7H     0044H     UNIT         ?C?LIB_CODE
            CODE    052BH     002BH     UNIT         ?PR?_LCDSETCURSOR?LCD12864
            CODE    0556H     0022H     UNIT         ?PR?_LCDSHOWSTR?LCD12864
            CODE    0578H     001EH     UNIT         ?PR?INITLCD12864?LCD12864
            CODE    0596H     0019H     UNIT         ?PR?LCDCLEARALL?LCD12864
            CODE    05AFH     0018H     UNIT         ?PR?MAIN?MAIN
            CODE    05C7H     0016H     UNIT         ?PR?_LCDWRITEDATA?LCD12864
            CODE    05DDH     0012H     UNIT         ?PR?LCDWAITREADY?LCD12864
            CODE    05EFH     0010H     UNIT         ?PR?_LCDWRITECMD?LCD12864
            CODE    05FFH     000CH     UNIT         ?C_C51STARTUP
            CODE    060BH     0005H     UNIT         ?PR?LCDSHOWCURSOR?LCD12864
            CODE    0610H     0005H     UNIT         ?PR?LCDCANCELCURSOR?LCD12864
            CODE    0615H     0002H     UNIT         ?CO?LCD12864



OVERLAY MAP OF MODULE:   ..\output\LCD12864Test (LCD12864)


SEGMENT                                DATA_GROUP 
  +--> CALLED SEGMENT                START    LENGTH
----------------------------------------------------
?C_C51STARTUP                        -----    -----
  +--> ?PR?MAIN?MAIN
BL51 BANKED LINKER/LOCATER V6.05                                                      05/29/2017  09:41:01  PAGE 2



?PR?MAIN?MAIN                        0008H    0002H
  +--> ?PR?INITLCD12864?LCD12864
  +--> ?PR?LCDSHOWCURSOR?LCD12864
  +--> ?CO?MAIN
  +--> ?PR?_LCDSHOWSTR?LCD12864

?PR?INITLCD12864?LCD12864            -----    -----
  +--> ?PR?_LCDWRITECMD?LCD12864
  +--> ?CO?LCD12864
  +--> ?PR?_LCDSHOWSTR?LCD12864

?PR?_LCDWRITECMD?LCD12864            -----    -----
  +--> ?PR?LCDWAITREADY?LCD12864

?PR?_LCDSHOWSTR?LCD12864             000AH    0006H
  +--> ?PR?_LCDSETCURSOR?LCD12864
  +--> ?PR?_LCDWRITEDATA?LCD12864

?PR?_LCDSETCURSOR?LCD12864           -----    -----
  +--> ?PR?_LCDWRITECMD?LCD12864

?PR?_LCDWRITEDATA?LCD12864           -----    -----
  +--> ?PR?LCDWAITREADY?LCD12864

?PR?LCDSHOWCURSOR?LCD12864           -----    -----
  +--> ?PR?_LCDWRITECMD?LCD12864



SYMBOL TABLE OF MODULE:  ..\output\LCD12864Test (LCD12864)

  VALUE           TYPE          NAME
  ----------------------------------

  -------         MODULE        LCD12864
  C:0000H         SYMBOL        _ICE_DUMMY_
  D:0080H         PUBLIC        P0
  D:0090H         PUBLIC        P1
  D:00A0H         PUBLIC        P2
  D:00B0H         PUBLIC        P3
  C:052BH         PUBLIC        _LCDSetCursor
  C:049AH         PUBLIC        _LCDShowCN
  D:00A8H         PUBLIC        IE
  D:00B8H         PUBLIC        IP
  C:0610H         PUBLIC        LCDCancelCursor
  C:0556H         PUBLIC        _LCDShowStr
  D:0098H         PUBLIC        SCON
  D:0088H         PUBLIC        TCON
  B:0090H.5       PUBLIC        LCD12864_EN
  C:0596H         PUBLIC        LCDClearAll
  C:0419H         PUBLIC        _LCDShowImage
  C:05CDH         PUBLIC        _LCDWriteData
  B:0090H.0       PUBLIC        LCD12864_RS
  C:05DDH         PUBLIC        LCDWaitReady
  B:0090H.1       PUBLIC        LCD12864_RW
  D:00C8H         PUBLIC        T2CON
BL51 BANKED LINKER/LOCATER V6.05                                                      05/29/2017  09:41:01  PAGE 3


  C:0578H         PUBLIC        InitLCD12864
  C:05EFH         PUBLIC        _LCDWriteCmd
  C:060BH         PUBLIC        LCDShowCursor
  D:00D0H         PUBLIC        PSW
  -------         PROC          LCDWAITREADY
  -------         DO            
  D:0007H         SYMBOL        tmp
  -------         ENDDO         
  C:05DDH         LINE#         6
  C:05DDH         LINE#         7
  C:05DDH         LINE#         8
  C:05DDH         LINE#         10
  C:05DFH         LINE#         11
  C:05E1H         LINE#         12
  C:05E1H         LINE#         13
  C:05E3H         LINE#         14
  C:05E8H         LINE#         15
  C:05EAH         LINE#         16
  C:05ECH         LINE#         17
  C:05EEH         LINE#         18
  -------         ENDPROC       LCDWAITREADY
  -------         PROC          _LCDWRITECMD
  D:0006H         SYMBOL        cmd
  C:05EFH         LINE#         20
  C:05F1H         LINE#         21
  C:05F1H         LINE#         22
  C:05F4H         LINE#         23
  C:05F6H         LINE#         24
  C:05F8H         LINE#         25
  C:05FAH         LINE#         26
  C:05FCH         LINE#         27
  C:05FEH         LINE#         28
  -------         ENDPROC       _LCDWRITECMD
  C:05C7H         SYMBOL        L?0045
  -------         PROC          L?0044
  -------         ENDPROC       L?0044
  C:05C7H         SYMBOL        L?0045
  -------         PROC          _LCDWRITEDATA
  D:0006H         SYMBOL        dat
  C:05CDH         LINE#         30
  C:05CFH         LINE#         31
  C:05CFH         LINE#         32
  C:05D2H         LINE#         33
  C:05D4H         LINE#         34
  C:05D6H         LINE#         35
  C:05D8H         LINE#         36
  C:05DAH         LINE#         37
  C:05DCH         LINE#         38
  -------         ENDPROC       _LCDWRITEDATA
  -------         PROC          INITLCD12864
  C:0578H         LINE#         40
  C:0578H         LINE#         41
  C:0578H         LINE#         42
  C:057DH         LINE#         43
  C:0582H         LINE#         44
  C:0587H         LINE#         45
  -------         ENDPROC       INITLCD12864
BL51 BANKED LINKER/LOCATER V6.05                                                      05/29/2017  09:41:01  PAGE 4


  -------         PROC          _LCDSHOWSTR
  D:0007H         SYMBOL        x
  D:0005H         SYMBOL        y
  D:000CH         SYMBOL        str
  D:000FH         SYMBOL        strlen
  C:0556H         LINE#         48
  C:055CH         LINE#         49
  C:055CH         LINE#         50
  C:055FH         LINE#         51
  C:055FH         LINE#         52
  C:056EH         LINE#         53
  C:0570H         LINE#         54
  C:0577H         LINE#         55
  -------         ENDPROC       _LCDSHOWSTR
  -------         PROC          _LCDSHOWCN
  D:0010H         SYMBOL        x
  D:0011H         SYMBOL        y
  D:0012H         SYMBOL        str
  D:0015H         SYMBOL        strlen
  -------         DO            
  D:0003H         SYMBOL        msb
  D:0005H         SYMBOL        lsb
  -------         ENDDO         
  C:049AH         LINE#         57
  C:04A4H         LINE#         58
  C:04A4H         LINE#         61
  C:04AEH         LINE#         62
  C:04B5H         LINE#         63
  C:04B7H         LINE#         64
  C:04BEH         LINE#         65
  C:04C1H         LINE#         66
  C:04C3H         LINE#         67
  C:04C3H         LINE#         68
  C:04D0H         LINE#         69
  C:04D0H         LINE#         70
  C:04D4H         LINE#         71
  C:04D9H         LINE#         72
  C:04E4H         LINE#         73
  C:04E6H         LINE#         74
  -------         ENDPROC       _LCDSHOWCN
  -------         PROC          _LCDSETCURSOR
  D:0006H         SYMBOL        x
  D:0005H         SYMBOL        y
  -------         DO            
  D:0007H         SYMBOL        pos
  -------         ENDDO         
  C:052BH         LINE#         76
  C:052DH         LINE#         77
  C:052DH         LINE#         78
  C:052FH         LINE#         80
  C:053DH         LINE#         81
  C:053DH         LINE#         82
  C:053DH         LINE#         83
  C:0541H         LINE#         84
  C:0543H         LINE#         85
  C:0543H         LINE#         86
  C:0547H         LINE#         87
BL51 BANKED LINKER/LOCATER V6.05                                                      05/29/2017  09:41:01  PAGE 5


  C:0549H         LINE#         88
  C:0549H         LINE#         89
  C:054DH         LINE#         90
  C:054FH         LINE#         91
  C:054FH         LINE#         92
  C:0553H         LINE#         93
  C:0553H         LINE#         94
  C:0553H         LINE#         95
  C:0553H         LINE#         96
  C:0553H         LINE#         97
  -------         ENDPROC       _LCDSETCURSOR
  -------         PROC          LCDSHOWCURSOR
  C:060BH         LINE#         100
  C:060BH         LINE#         101
  C:060BH         LINE#         102
  -------         ENDPROC       LCDSHOWCURSOR
  -------         PROC          LCDCANCELCURSOR
  C:0610H         LINE#         105
  C:0610H         LINE#         106
  C:0610H         LINE#         107
  -------         ENDPROC       LCDCANCELCURSOR
  -------         PROC          LCDCLEARALL
  C:0596H         LINE#         110
  C:0596H         LINE#         111
  C:0596H         LINE#         112
  C:059BH         LINE#         113
  C:05A0H         LINE#         114
  -------         ENDPROC       LCDCLEARALL
  -------         PROC          _LCDSHOWIMAGE
  D:0016H         SYMBOL        image
  -------         DO            
  D:0004H         SYMBOL        i
  D:0005H         SYMBOL        j
  -------         ENDDO         
  C:0419H         LINE#         117
  C:041FH         LINE#         118
  C:041FH         LINE#         121
  C:0424H         LINE#         122
  C:0429H         LINE#         123
  C:042BH         LINE#         124
  C:0432H         LINE#         125
  C:0437H         LINE#         126
  C:0439H         LINE#         127
  C:0439H         LINE#         128
  C:0448H         LINE#         129
  C:0457H         LINE#         130
  C:045BH         LINE#         131
  C:045FH         LINE#         133
  C:0461H         LINE#         134
  C:0468H         LINE#         135
  C:046DH         LINE#         136
  C:046FH         LINE#         137
  C:046FH         LINE#         138
  C:047EH         LINE#         139
  C:048DH         LINE#         140
  C:0491H         LINE#         141
  C:0495H         LINE#         142
BL51 BANKED LINKER/LOCATER V6.05                                                      05/29/2017  09:41:01  PAGE 6


  -------         ENDPROC       _LCDSHOWIMAGE
  -------         ENDMOD        LCD12864

  -------         MODULE        MAIN
  C:0000H         SYMBOL        _ICE_DUMMY_
  D:0090H         PUBLIC        P1
  D:00A0H         PUBLIC        P2
  D:00B0H         PUBLIC        P3
  D:00A8H         PUBLIC        IE
  D:00B8H         PUBLIC        IP
  C:05AFH         PUBLIC        main
  D:0098H         PUBLIC        SCON
  D:0088H         PUBLIC        TCON
  C:0005H         PUBLIC        prompt1
  C:000DH         PUBLIC        prompt2
  D:00C8H         PUBLIC        T2CON
  C:0019H         PUBLIC        DPImage
  D:00D0H         PUBLIC        PSW
  -------         PROC          MAIN
  -------         DO            
  D:0008H         SYMBOL        i
  -------         ENDDO         
  C:05AFH         LINE#         81
  C:05AFH         LINE#         82
  C:05AFH         LINE#         85
  C:05B2H         LINE#         92
  C:05B5H         LINE#         94
  C:05C5H         LINE#         96
  -------         ENDPROC       MAIN
  -------         ENDMOD        MAIN

  -------         MODULE        ?C?CLDPTR
  C:04E7H         PUBLIC        ?C?CLDPTR
  -------         ENDMOD        ?C?CLDPTR

  -------         MODULE        ?C?ILDPTR
  C:0500H         PUBLIC        ?C?ILDPTR
  -------         ENDMOD        ?C?ILDPTR

*** WARNING L16: UNCALLED SEGMENT, IGNORED FOR OVERLAY PROCESS
    SEGMENT: ?PR?_LCDSHOWCN?LCD12864

*** WARNING L16: UNCALLED SEGMENT, IGNORED FOR OVERLAY PROCESS
    SEGMENT: ?PR?LCDCANCELCURSOR?LCD12864

*** WARNING L16: UNCALLED SEGMENT, IGNORED FOR OVERLAY PROCESS
    SEGMENT: ?PR?LCDCLEARALL?LCD12864

*** WARNING L16: UNCALLED SEGMENT, IGNORED FOR OVERLAY PROCESS
    SEGMENT: ?PR?_LCDSHOWIMAGE?LCD12864

Program Size: data=26.0 xdata=0 code=1559
LINK/LOCATE RUN COMPLETE.  4 WARNING(S),  0 ERROR(S)
